target datalayout = "e-m:e-p270:32:32-p271:32:32-p272:64:64-i64:64-i128:128-f80:128-n8:16:32:64-S128"
target triple = "x86_64-pc-linux-gnu"

%struct.numeric = type { i32, i32, i32, i32, i32, ptr, ptr }

@.str.1 = private unnamed_addr constant [4 x i8] c"NaN\00", align 1

; Function Attrs: nounwind uwtable
define internal ptr @get_str_from_var(ptr noundef %0, i32 noundef %1) #0 {
  %3 = alloca ptr, align 8
  %4 = alloca ptr, align 8
  %5 = alloca i32, align 4
  %6 = alloca ptr, align 8
  %7 = alloca ptr, align 8
  %8 = alloca i32, align 4
  %9 = alloca i32, align 4
  %10 = alloca i32, align 4
  %11 = alloca i32, align 4
  store ptr %0, ptr %4, align 8
  store i32 %1, ptr %5, align 4
  call void @llvm.lifetime.start.p0(i64 8, ptr %6) #8
  call void @llvm.lifetime.start.p0(i64 8, ptr %7) #8
  call void @llvm.lifetime.start.p0(i64 4, ptr %8) #8
  call void @llvm.lifetime.start.p0(i64 4, ptr %9) #8
  %12 = load ptr, ptr %4, align 8
  %13 = getelementptr inbounds nuw %struct.numeric, ptr %12, i32 0, i32 4
  %14 = load i32, ptr %13, align 8
  %15 = icmp eq i32 %14, 49152
  br i1 %15, label %16, label %25

16:                                               ; preds = %2
  %17 = call ptr @pgtypes_alloc(i64 noundef 4)
  store ptr %17, ptr %6, align 8
  %18 = load ptr, ptr %6, align 8
  %19 = icmp eq ptr %18, null
  br i1 %19, label %20, label %21

20:                                               ; preds = %16
  store ptr null, ptr %3, align 8
  store i32 1, ptr %10, align 4
  br label %259

21:                                               ; preds = %16
  %22 = load ptr, ptr %6, align 8
  %23 = call i32 (ptr, ptr, ...) @pg_sprintf(ptr noundef %22, ptr noundef @.str.1)
  %24 = load ptr, ptr %6, align 8
  store ptr %24, ptr %3, align 8
  store i32 1, ptr %10, align 4
  br label %259

25:                                               ; preds = %2
  %26 = load i32, ptr %5, align 4
  %27 = load ptr, ptr %4, align 8
  %28 = getelementptr inbounds nuw %struct.numeric, ptr %27, i32 0, i32 1
  %29 = load i32, ptr %28, align 4
  %30 = add i32 %26, %29
  %31 = add i32 %30, 1
  store i32 %31, ptr %8, align 4
  %32 = load i32, ptr %8, align 4
  %33 = icmp sge i32 %32, 0
  br i1 %33, label %34, label %97

34:                                               ; preds = %25
  %35 = load ptr, ptr %4, align 8
  %36 = getelementptr inbounds nuw %struct.numeric, ptr %35, i32 0, i32 0
  %37 = load i32, ptr %36, align 8
  %38 = load i32, ptr %8, align 4
  %39 = icmp sgt i32 %37, %38
  br i1 %39, label %40, label %97

40:                                               ; preds = %34
  call void @llvm.lifetime.start.p0(i64 4, ptr %11) #8
  %41 = load ptr, ptr %4, align 8
  %42 = getelementptr inbounds nuw %struct.numeric, ptr %41, i32 0, i32 6
  %43 = load ptr, ptr %42, align 8
  %44 = load i32, ptr %8, align 4
  %45 = sext i32 %44 to i64
  %46 = getelementptr inbounds i8, ptr %43, i64 %45
  %47 = load i8, ptr %46, align 1
  %48 = zext i8 %47 to i32
  %49 = icmp sgt i32 %48, 4
  %50 = select i1 %49, i32 1, i32 0
  store i32 %50, ptr %11, align 4
  %51 = load i32, ptr %8, align 4
  %52 = load ptr, ptr %4, align 8
  %53 = getelementptr inbounds nuw %struct.numeric, ptr %52, i32 0, i32 0
  store i32 %51, ptr %53, align 8
  br label %54

54:                                               ; preds = %57, %40
  %55 = load i32, ptr %11, align 4
  %56 = icmp ne i32 %55, 0
  br i1 %56, label %57, label %80

57:                                               ; preds = %54
  %58 = load ptr, ptr %4, align 8
  %59 = getelementptr inbounds nuw %struct.numeric, ptr %58, i32 0, i32 6
  %60 = load ptr, ptr %59, align 8
  %61 = load i32, ptr %8, align 4
  %62 = add i32 %61, -1
  store i32 %62, ptr %8, align 4
  %63 = sext i32 %62 to i64
  %64 = getelementptr inbounds i8, ptr %60, i64 %63
  %65 = load i8, ptr %64, align 1
  %66 = zext i8 %65 to i32
  %67 = load i32, ptr %11, align 4
  %68 = add i32 %67, %66
  store i32 %68, ptr %11, align 4
  %69 = load i32, ptr %11, align 4
  %70 = srem i32 %69, 10
  %71 = trunc i32 %70 to i8
  %72 = load ptr, ptr %4, align 8
  %73 = getelementptr inbounds nuw %struct.numeric, ptr %72, i32 0, i32 6
  %74 = load ptr, ptr %73, align 8
  %75 = load i32, ptr %8, align 4
  %76 = sext i32 %75 to i64
  %77 = getelementptr inbounds i8, ptr %74, i64 %76
  store i8 %71, ptr %77, align 1
  %78 = load i32, ptr %11, align 4
  %79 = sdiv i32 %78, 10
  store i32 %79, ptr %11, align 4
  br label %54, !llvm.loop !12

80:                                               ; preds = %54
  %81 = load i32, ptr %8, align 4
  %82 = icmp slt i32 %81, 0
  br i1 %82, label %83, label %96

83:                                               ; preds = %80
  %84 = load ptr, ptr %4, align 8
  %85 = getelementptr inbounds nuw %struct.numeric, ptr %84, i32 0, i32 6
  %86 = load ptr, ptr %85, align 8
  %87 = getelementptr inbounds i8, ptr %86, i32 -1
  store ptr %87, ptr %85, align 8
  %88 = load ptr, ptr %4, align 8
  %89 = getelementptr inbounds nuw %struct.numeric, ptr %88, i32 0, i32 0
  %90 = load i32, ptr %89, align 8
  %91 = add i32 %90, 1
  store i32 %91, ptr %89, align 8
  %92 = load ptr, ptr %4, align 8
  %93 = getelementptr inbounds nuw %struct.numeric, ptr %92, i32 0, i32 1
  %94 = load i32, ptr %93, align 4
  %95 = add i32 %94, 1
  store i32 %95, ptr %93, align 4
  br label %96

96:                                               ; preds = %83, %80
  call void @llvm.lifetime.end.p0(i64 4, ptr %11) #8
  br label %131

97:                                               ; preds = %34, %25
  %98 = load i32, ptr %8, align 4
  %99 = load ptr, ptr %4, align 8
  %100 = getelementptr inbounds nuw %struct.numeric, ptr %99, i32 0, i32 0
  %101 = load i32, ptr %100, align 8
  %102 = icmp slt i32 %98, %101
  br i1 %102, label %103, label %105

103:                                              ; preds = %97
  %104 = load i32, ptr %8, align 4
  br label %109

105:                                              ; preds = %97
  %106 = load ptr, ptr %4, align 8
  %107 = getelementptr inbounds nuw %struct.numeric, ptr %106, i32 0, i32 0
  %108 = load i32, ptr %107, align 8
  br label %109

109:                                              ; preds = %105, %103
  %110 = phi i32 [ %104, %103 ], [ %108, %105 ]
  %111 = icmp sgt i32 0, %110
  br i1 %111, label %112, label %113

112:                                              ; preds = %109
  br label %127

113:                                              ; preds = %109
  %114 = load i32, ptr %8, align 4
  %115 = load ptr, ptr %4, align 8
  %116 = getelementptr inbounds nuw %struct.numeric, ptr %115, i32 0, i32 0
  %117 = load i32, ptr %116, align 8
  %118 = icmp slt i32 %114, %117
  br i1 %118, label %119, label %121

119:                                              ; preds = %113
  %120 = load i32, ptr %8, align 4
  br label %125

121:                                              ; preds = %113
  %122 = load ptr, ptr %4, align 8
  %123 = getelementptr inbounds nuw %struct.numeric, ptr %122, i32 0, i32 0
  %124 = load i32, ptr %123, align 8
  br label %125

125:                                              ; preds = %121, %119
  %126 = phi i32 [ %120, %119 ], [ %124, %121 ]
  br label %127

127:                                              ; preds = %125, %112
  %128 = phi i32 [ 0, %112 ], [ %126, %125 ]
  %129 = load ptr, ptr %4, align 8
  %130 = getelementptr inbounds nuw %struct.numeric, ptr %129, i32 0, i32 0
  store i32 %128, ptr %130, align 8
  br label %131

131:                                              ; preds = %127, %96
  %132 = load i32, ptr %5, align 4
  %133 = icmp sgt i32 0, %132
  br i1 %133, label %134, label %135

134:                                              ; preds = %131
  br label %137

135:                                              ; preds = %131
  %136 = load i32, ptr %5, align 4
  br label %137

137:                                              ; preds = %135, %134
  %138 = phi i32 [ 0, %134 ], [ %136, %135 ]
  %139 = load ptr, ptr %4, align 8
  %140 = getelementptr inbounds nuw %struct.numeric, ptr %139, i32 0, i32 1
  %141 = load i32, ptr %140, align 4
  %142 = icmp sgt i32 0, %141
  br i1 %142, label %143, label %144

143:                                              ; preds = %137
  br label %148

144:                                              ; preds = %137
  %145 = load ptr, ptr %4, align 8
  %146 = getelementptr inbounds nuw %struct.numeric, ptr %145, i32 0, i32 1
  %147 = load i32, ptr %146, align 4
  br label %148

148:                                              ; preds = %144, %143
  %149 = phi i32 [ 0, %143 ], [ %147, %144 ]
  %150 = add i32 %138, %149
  %151 = add i32 %150, 4
  %152 = sext i32 %151 to i64
  %153 = call ptr @pgtypes_alloc(i64 noundef %152)
  store ptr %153, ptr %6, align 8
  %154 = icmp eq ptr %153, null
  br i1 %154, label %155, label %156

155:                                              ; preds = %148
  store ptr null, ptr %3, align 8
  store i32 1, ptr %10, align 4
  br label %259

156:                                              ; preds = %148
  %157 = load ptr, ptr %6, align 8
  store ptr %157, ptr %7, align 8
  %158 = load ptr, ptr %4, align 8
  %159 = getelementptr inbounds nuw %struct.numeric, ptr %158, i32 0, i32 4
  %160 = load i32, ptr %159, align 8
  %161 = icmp eq i32 %160, 16384
  br i1 %161, label %162, label %165

162:                                              ; preds = %156
  %163 = load ptr, ptr %7, align 8
  %164 = getelementptr inbounds nuw i8, ptr %163, i32 1
  store ptr %164, ptr %7, align 8
  store i8 45, ptr %163, align 1
  br label %165

165:                                              ; preds = %162, %156
  %166 = load ptr, ptr %4, align 8
  %167 = getelementptr inbounds nuw %struct.numeric, ptr %166, i32 0, i32 1
  %168 = load i32, ptr %167, align 4
  %169 = icmp sgt i32 %168, 0
  br i1 %169, label %170, label %174

170:                                              ; preds = %165
  %171 = load ptr, ptr %4, align 8
  %172 = getelementptr inbounds nuw %struct.numeric, ptr %171, i32 0, i32 1
  %173 = load i32, ptr %172, align 4
  br label %175

174:                                              ; preds = %165
  br label %175

175:                                              ; preds = %174, %170
  %176 = phi i32 [ %173, %170 ], [ 0, %174 ]
  store i32 %176, ptr %8, align 4
  store i32 0, ptr %9, align 4
  br label %177

177:                                              ; preds = %209, %175
  %178 = load i32, ptr %8, align 4
  %179 = icmp sge i32 %178, 0
  br i1 %179, label %180, label %212

180:                                              ; preds = %177
  %181 = load i32, ptr %8, align 4
  %182 = load ptr, ptr %4, align 8
  %183 = getelementptr inbounds nuw %struct.numeric, ptr %182, i32 0, i32 1
  %184 = load i32, ptr %183, align 4
  %185 = icmp sle i32 %181, %184
  br i1 %185, label %186, label %206

186:                                              ; preds = %180
  %187 = load i32, ptr %9, align 4
  %188 = load ptr, ptr %4, align 8
  %189 = getelementptr inbounds nuw %struct.numeric, ptr %188, i32 0, i32 0
  %190 = load i32, ptr %189, align 8
  %191 = icmp slt i32 %187, %190
  br i1 %191, label %192, label %206

192:                                              ; preds = %186
  %193 = load ptr, ptr %4, align 8
  %194 = getelementptr inbounds nuw %struct.numeric, ptr %193, i32 0, i32 6
  %195 = load ptr, ptr %194, align 8
  %196 = load i32, ptr %9, align 4
  %197 = add i32 %196, 1
  store i32 %197, ptr %9, align 4
  %198 = sext i32 %196 to i64
  %199 = getelementptr inbounds i8, ptr %195, i64 %198
  %200 = load i8, ptr %199, align 1
  %201 = zext i8 %200 to i32
  %202 = add i32 %201, 48
  %203 = trunc i32 %202 to i8
  %204 = load ptr, ptr %7, align 8
  %205 = getelementptr inbounds nuw i8, ptr %204, i32 1
  store ptr %205, ptr %7, align 8
  store i8 %203, ptr %204, align 1
  br label %209

206:                                              ; preds = %186, %180
  %207 = load ptr, ptr %7, align 8
  %208 = getelementptr inbounds nuw i8, ptr %207, i32 1
  store ptr %208, ptr %7, align 8
  store i8 48, ptr %207, align 1
  br label %209

209:                                              ; preds = %206, %192
  %210 = load i32, ptr %8, align 4
  %211 = add i32 %210, -1
  store i32 %211, ptr %8, align 4
  br label %177, !llvm.loop !13

212:                                              ; preds = %177
  %213 = load i32, ptr %5, align 4
  %214 = icmp sgt i32 %213, 0
  br i1 %214, label %215, label %256

215:                                              ; preds = %212
  %216 = load ptr, ptr %7, align 8
  %217 = getelementptr inbounds nuw i8, ptr %216, i32 1
  store ptr %217, ptr %7, align 8
  store i8 46, ptr %216, align 1
  br label %218

218:                                              ; preds = %252, %215
  %219 = load i32, ptr %8, align 4
  %220 = load i32, ptr %5, align 4
  %221 = sub i32 0, %220
  %222 = icmp sge i32 %219, %221
  br i1 %222, label %223, label %255

223:                                              ; preds = %218
  %224 = load i32, ptr %8, align 4
  %225 = load ptr, ptr %4, align 8
  %226 = getelementptr inbounds nuw %struct.numeric, ptr %225, i32 0, i32 1
  %227 = load i32, ptr %226, align 4
  %228 = icmp sle i32 %224, %227
  br i1 %228, label %229, label %249

229:                                              ; preds = %223
  %230 = load i32, ptr %9, align 4
  %231 = load ptr, ptr %4, align 8
  %232 = getelementptr inbounds nuw %struct.numeric, ptr %231, i32 0, i32 0
  %233 = load i32, ptr %232, align 8
  %234 = icmp slt i32 %230, %233
  br i1 %234, label %235, label %249

235:                                              ; preds = %229
  %236 = load ptr, ptr %4, align 8
  %237 = getelementptr inbounds nuw %struct.numeric, ptr %236, i32 0, i32 6
  %238 = load ptr, ptr %237, align 8
  %239 = load i32, ptr %9, align 4
  %240 = add i32 %239, 1
  store i32 %240, ptr %9, align 4
  %241 = sext i32 %239 to i64
  %242 = getelementptr inbounds i8, ptr %238, i64 %241
  %243 = load i8, ptr %242, align 1
  %244 = zext i8 %243 to i32
  %245 = add i32 %244, 48
  %246 = trunc i32 %245 to i8
  %247 = load ptr, ptr %7, align 8
  %248 = getelementptr inbounds nuw i8, ptr %247, i32 1
  store ptr %248, ptr %7, align 8
  store i8 %246, ptr %247, align 1
  br label %252

249:                                              ; preds = %229, %223
  %250 = load ptr, ptr %7, align 8
  %251 = getelementptr inbounds nuw i8, ptr %250, i32 1
  store ptr %251, ptr %7, align 8
  store i8 48, ptr %250, align 1
  br label %252

252:                                              ; preds = %249, %235
  %253 = load i32, ptr %8, align 4
  %254 = add i32 %253, -1
  store i32 %254, ptr %8, align 4
  br label %218, !llvm.loop !14

255:                                              ; preds = %218
  br label %256

256:                                              ; preds = %255, %212
  %257 = load ptr, ptr %7, align 8
  store i8 0, ptr %257, align 1
  %258 = load ptr, ptr %6, align 8
  store ptr %258, ptr %3, align 8
  store i32 1, ptr %10, align 4
  br label %259

259:                                              ; preds = %256, %155, %21, %20
  call void @llvm.lifetime.end.p0(i64 4, ptr %9) #8
  call void @llvm.lifetime.end.p0(i64 4, ptr %8) #8
  call void @llvm.lifetime.end.p0(i64 8, ptr %7) #8
  call void @llvm.lifetime.end.p0(i64 8, ptr %6) #8
  %260 = load ptr, ptr %3, align 8
  ret ptr %260
}