; Function Attrs: nounwind uwtable
define internal fastcc ptr @get_str_from_var(ptr noundef nonnull captures(none) %0, i32 noundef %1) unnamed_addr #0 {
  %3 = getelementptr inbounds nuw i8, ptr %0, i64 16
  %4 = load i32, ptr %3, align 8
  %5 = icmp eq i32 %4, 49152
  br i1 %5, label %6, label %11

6:                                                ; preds = %2
  %7 = tail call ptr @pgtypes_alloc(i64 noundef 4) #14
  %8 = icmp eq ptr %7, null
  br i1 %8, label %89, label %9

9:                                                ; preds = %6
  %10 = tail call i32 (ptr, ptr, ...) @pg_sprintf(ptr noundef nonnull %7, ptr noundef nonnull @.str.1) #14
  br label %89

11:                                               ; preds = %2
  %12 = getelementptr inbounds nuw i8, ptr %0, i64 4
  %13 = load i32, ptr %12, align 4
  %14 = add i32 %1, 1
  %15 = add i32 %14, %13
  %16 = icmp sgt i32 %15, -1
  %.pre = load i32, ptr %0, align 8
  %17 = icmp sgt i32 %.pre, %15
  %or.cond = select i1 %16, i1 %17, i1 false
  br i1 %or.cond, label %18, label %42

18:                                               ; preds = %11
  %19 = getelementptr inbounds nuw i8, ptr %0, i64 32
  %20 = load ptr, ptr %19, align 8
  %21 = zext nneg i32 %15 to i64
  %22 = getelementptr inbounds nuw i8, ptr %20, i64 %21
  %23 = load i8, ptr %22, align 1
  %24 = icmp ugt i8 %23, 4
  store i32 %15, ptr %0, align 8
  br i1 %24, label %.lr.ph, label %._crit_edge.thread

.lr.ph:                                           ; preds = %18, %.lr.ph
  %.097 = phi i32 [ %34, %.lr.ph ], [ 1, %18 ]
  %.06996 = phi i32 [ %26, %.lr.ph ], [ %15, %18 ]
  %25 = load ptr, ptr %19, align 8
  %26 = add i32 %.06996, -1
  %27 = sext i32 %26 to i64
  %28 = getelementptr inbounds i8, ptr %25, i64 %27
  %29 = load i8, ptr %28, align 1
  %30 = zext i8 %29 to i32
  %31 = add nuw nsw i32 %.097, %30
  %32 = urem i32 %31, 10
  %33 = trunc nuw nsw i32 %32 to i8
  store i8 %33, ptr %28, align 1
  %34 = udiv i32 %31, 10
  %.not = icmp samesign ult i32 %31, 10
  br i1 %.not, label %._crit_edge, label %.lr.ph, !llvm.loop !10

._crit_edge:                                      ; preds = %.lr.ph
  %.pre109.pre = load i32, ptr %12, align 4
  %35 = icmp slt i32 %26, 0
  br i1 %35, label %36, label %._crit_edge.thread

36:                                               ; preds = %._crit_edge
  %37 = load ptr, ptr %19, align 8
  %38 = getelementptr inbounds i8, ptr %37, i64 -1
  store ptr %38, ptr %19, align 8
  %39 = load i32, ptr %0, align 8
  %40 = add i32 %39, 1
  store i32 %40, ptr %0, align 8
  %41 = add i32 %.pre109.pre, 1
  store i32 %41, ptr %12, align 4
  br label %._crit_edge.thread

42:                                               ; preds = %11
  %. = tail call i32 @llvm.smin.i32(i32 %15, i32 %.pre)
  %spec.select93 = tail call i32 @llvm.smax.i32(i32 %., i32 0)
  store i32 %spec.select93, ptr %0, align 8
  br label %._crit_edge.thread

._crit_edge.thread:                               ; preds = %18, %._crit_edge, %36, %42
  %43 = phi i32 [ %.pre109.pre, %._crit_edge ], [ %41, %36 ], [ %13, %42 ], [ %13, %18 ]
  %44 = tail call i32 @llvm.smax.i32(i32 %1, i32 0)
  %spec.select = tail call i32 @llvm.smax.i32(i32 %43, i32 0)
  %45 = add nuw i32 %44, 4
  %46 = add i32 %45, %spec.select
  %47 = sext i32 %46 to i64
  %48 = tail call ptr @pgtypes_alloc(i64 noundef %47) #14
  %49 = icmp eq ptr %48, null
  br i1 %49, label %89, label %50

50:                                               ; preds = %._crit_edge.thread
  %51 = load i32, ptr %3, align 8
  %52 = icmp eq i32 %51, 16384
  br i1 %52, label %53, label %55

53:                                               ; preds = %50
  %54 = getelementptr inbounds nuw i8, ptr %48, i64 1
  store i8 45, ptr %48, align 1
  br label %55

55:                                               ; preds = %53, %50
  %.072 = phi ptr [ %54, %53 ], [ %48, %50 ]
  %56 = load i32, ptr %12, align 4
  %spec.select94 = tail call i32 @llvm.smax.i32(i32 %56, i32 0)
  %57 = getelementptr inbounds nuw i8, ptr %0, i64 32
  br label %58

58:                                               ; preds = %55, %select.unfold
  %.068100 = phi i32 [ 0, %55 ], [ %.1, %select.unfold ]
  %.17099 = phi i32 [ %spec.select94, %55 ], [ %70, %select.unfold ]
  %.17398 = phi ptr [ %.072, %55 ], [ %.274, %select.unfold ]
  %59 = load i32, ptr %12, align 4
  %.not89 = icmp sgt i32 %.17099, %59
  br i1 %.not89, label %select.unfold, label %60

60:                                               ; preds = %58
  %61 = load i32, ptr %0, align 8
  %62 = icmp slt i32 %.068100, %61
  br i1 %62, label %63, label %select.unfold

63:                                               ; preds = %60
  %64 = load ptr, ptr %57, align 8
  %65 = add nsw i32 %.068100, 1
  %66 = sext i32 %.068100 to i64
  %67 = getelementptr inbounds i8, ptr %64, i64 %66
  %68 = load i8, ptr %67, align 1
  %69 = add i8 %68, 48
  br label %select.unfold

select.unfold:                                    ; preds = %58, %60, %63
  %storemerge90 = phi i8 [ %69, %63 ], [ 48, %60 ], [ 48, %58 ]
  %.1 = phi i32 [ %65, %63 ], [ %.068100, %60 ], [ %.068100, %58 ]
  %.274 = getelementptr inbounds nuw i8, ptr %.17398, i64 1
  store i8 %storemerge90, ptr %.17398, align 1
  %70 = add nsw i32 %.17099, -1
  %71 = icmp sgt i32 %.17099, 0
  br i1 %71, label %58, label %72, !llvm.loop !11

72:                                               ; preds = %select.unfold
  %73 = icmp sgt i32 %1, 0
  br i1 %73, label %.lr.ph107, label %.loopexit

.lr.ph107:                                        ; preds = %72
  store i8 46, ptr %.274, align 1
  %74 = sub nsw i32 0, %1
  %.4101 = getelementptr inbounds nuw i8, ptr %.17398, i64 2
  br label %75

75:                                               ; preds = %.lr.ph107, %87
  %.4105 = phi ptr [ %.4101, %.lr.ph107 ], [ %.4, %87 ]
  %.2104 = phi i32 [ %.1, %.lr.ph107 ], [ %.3, %87 ]
  %.271103 = phi i32 [ -1, %.lr.ph107 ], [ %88, %87 ]
  %76 = load i32, ptr %12, align 4
  %.not88 = icmp sgt i32 %.271103, %76
  br i1 %.not88, label %87, label %77

77:                                               ; preds = %75
  %78 = load i32, ptr %0, align 8
  %79 = icmp slt i32 %.2104, %78
  br i1 %79, label %80, label %87

80:                                               ; preds = %77
  %81 = load ptr, ptr %57, align 8
  %82 = add nsw i32 %.2104, 1
  %83 = sext i32 %.2104 to i64
  %84 = getelementptr inbounds i8, ptr %81, i64 %83
  %85 = load i8, ptr %84, align 1
  %86 = add i8 %85, 48
  br label %87

87:                                               ; preds = %75, %77, %80
  %storemerge = phi i8 [ %86, %80 ], [ 48, %77 ], [ 48, %75 ]
  %.3 = phi i32 [ %82, %80 ], [ %.2104, %77 ], [ %.2104, %75 ]
  store i8 %storemerge, ptr %.4105, align 1
  %88 = add nsw i32 %.271103, -1
  %.4 = getelementptr inbounds nuw i8, ptr %.4105, i64 1
  %.not87.not = icmp sgt i32 %.271103, %74
  br i1 %.not87.not, label %75, label %.loopexit, !llvm.loop !12

.loopexit:                                        ; preds = %87, %72
  %.375 = phi ptr [ %.274, %72 ], [ %.4, %87 ]
  store i8 0, ptr %.375, align 1
  br label %89

89:                                               ; preds = %._crit_edge.thread, %6, %.loopexit, %9
  %.076 = phi ptr [ %7, %9 ], [ %48, %.loopexit ], [ null, %6 ], [ null, %._crit_edge.thread ]
  ret ptr %.076
}